target datalayout = "e-m:e-p270:32:32-p271:32:32-p272:64:64-i64:64-i128:128-f80:128-n8:16:32:64-S128"
target triple = "x86_64-pc-linux-gnu"

@hf_gsm_bssmap_le_spare = internal global i32 0, align 4
@hf_gsm_bssmap_le_velocity_requested = internal global i32 0, align 4
@hf_gsm_bssmap_le_vertical_coordinate_indicator = internal global i32 0, align 4
@hf_gsm_bssmap_le_horizontal_accuracy_indicator = internal global i32 0, align 4
@hf_gsm_bssmap_le_horizontal_accuracy = internal global i32 0, align 4
@hf_gsm_bssmap_le_vertical_accuracy = internal global i32 0, align 4
@hf_gsm_bssmap_le_vertical_accuracy_indicator = internal global i32 0, align 4
@hf_gsm_bssmap_le_response_time_category = internal global i32 0, align 4

; Function Attrs: null_pointer_is_valid sspstrong uwtable
define internal zeroext i16 @de_bmaple_lcs_qos(ptr noundef %0, ptr noundef %1, ptr noundef %2, i32 noundef %3, i32 noundef %4, ptr noundef %5, i32 noundef %6) #1 {
  %8 = alloca ptr, align 8
  %9 = alloca ptr, align 8
  %10 = alloca ptr, align 8
  %11 = alloca i32, align 4
  %12 = alloca i32, align 4
  %13 = alloca ptr, align 8
  %14 = alloca i32, align 4
  %15 = alloca i64, align 8
  %16 = alloca i64, align 8
  %17 = alloca i64, align 8
  %18 = alloca i64, align 8
  %19 = alloca i16, align 2
  store ptr %0, ptr %8, align 8
  store ptr %1, ptr %9, align 8
  store ptr %2, ptr %10, align 8
  store i32 %3, ptr %11, align 4
  store i32 %4, ptr %12, align 4
  store ptr %5, ptr %13, align 8
  store i32 %6, ptr %14, align 4
  call void @llvm.lifetime.start.p0(i64 8, ptr %15) #3
  call void @llvm.lifetime.start.p0(i64 8, ptr %16) #3
  call void @llvm.lifetime.start.p0(i64 8, ptr %17) #3
  call void @llvm.lifetime.start.p0(i64 8, ptr %18) #3
  call void @llvm.lifetime.start.p0(i64 2, ptr %19) #3
  %20 = load i32, ptr %11, align 4
  %21 = shl i32 %20, 3
  %22 = trunc i32 %21 to i16
  store i16 %22, ptr %19, align 2
  %23 = load ptr, ptr %9, align 8
  %24 = load i32, ptr @hf_gsm_bssmap_le_spare, align 4
  %25 = load ptr, ptr %8, align 8
  %26 = load i16, ptr %19, align 2
  %27 = zext i16 %26 to i32
  %28 = call ptr @proto_tree_add_bits_item(ptr noundef %23, i32 noundef %24, ptr noundef %25, i32 noundef %27, i32 noundef 6, i32 noundef 0)
  %29 = load i16, ptr %19, align 2
  %30 = zext i16 %29 to i32
  %31 = add i32 %30, 6
  %32 = trunc i32 %31 to i16
  store i16 %32, ptr %19, align 2
  %33 = load ptr, ptr %9, align 8
  %34 = load i32, ptr @hf_gsm_bssmap_le_velocity_requested, align 4
  %35 = load ptr, ptr %8, align 8
  %36 = load i16, ptr %19, align 2
  %37 = zext i16 %36 to i32
  %38 = call ptr @proto_tree_add_bits_ret_val(ptr noundef %33, i32 noundef %34, ptr noundef %35, i32 noundef %37, i32 noundef 1, ptr noundef %16, i32 noundef 0)
  %39 = load i16, ptr %19, align 2
  %40 = add i16 %39, 1
  store i16 %40, ptr %19, align 2
  %41 = load ptr, ptr %9, align 8
  %42 = load i32, ptr @hf_gsm_bssmap_le_vertical_coordinate_indicator, align 4
  %43 = load ptr, ptr %8, align 8
  %44 = load i16, ptr %19, align 2
  %45 = zext i16 %44 to i32
  %46 = call ptr @proto_tree_add_bits_ret_val(ptr noundef %41, i32 noundef %42, ptr noundef %43, i32 noundef %45, i32 noundef 1, ptr noundef %15, i32 noundef 0)
  %47 = load i16, ptr %19, align 2
  %48 = add i16 %47, 1
  store i16 %48, ptr %19, align 2
  %49 = load ptr, ptr %9, align 8
  %50 = load i32, ptr @hf_gsm_bssmap_le_horizontal_accuracy_indicator, align 4
  %51 = load ptr, ptr %8, align 8
  %52 = load i16, ptr %19, align 2
  %53 = zext i16 %52 to i32
  %54 = call ptr @proto_tree_add_bits_ret_val(ptr noundef %49, i32 noundef %50, ptr noundef %51, i32 noundef %53, i32 noundef 1, ptr noundef %17, i32 noundef 0)
  %55 = load i16, ptr %19, align 2
  %56 = add i16 %55, 1
  store i16 %56, ptr %19, align 2
  %57 = load i64, ptr %17, align 8
  %58 = icmp eq i64 %57, 1
  br i1 %58, label %59, label %70

59:                                               ; preds = %7
  %60 = load ptr, ptr %9, align 8
  %61 = load i32, ptr @hf_gsm_bssmap_le_horizontal_accuracy, align 4
  %62 = load ptr, ptr %8, align 8
  %63 = load i16, ptr %19, align 2
  %64 = zext i16 %63 to i32
  %65 = call ptr @proto_tree_add_bits_item(ptr noundef %60, i32 noundef %61, ptr noundef %62, i32 noundef %64, i32 noundef 7, i32 noundef 0)
  %66 = load i16, ptr %19, align 2
  %67 = zext i16 %66 to i32
  %68 = add i32 %67, 7
  %69 = trunc i32 %68 to i16
  store i16 %69, ptr %19, align 2
  br label %81

70:                                               ; preds = %7
  %71 = load ptr, ptr %9, align 8
  %72 = load i32, ptr @hf_gsm_bssmap_le_spare, align 4
  %73 = load ptr, ptr %8, align 8
  %74 = load i16, ptr %19, align 2
  %75 = zext i16 %74 to i32
  %76 = call ptr @proto_tree_add_bits_item(ptr noundef %71, i32 noundef %72, ptr noundef %73, i32 noundef %75, i32 noundef 7, i32 noundef 0)
  %77 = load i16, ptr %19, align 2
  %78 = zext i16 %77 to i32
  %79 = add i32 %78, 7
  %80 = trunc i32 %79 to i16
  store i16 %80, ptr %19, align 2
  br label %81

81:                                               ; preds = %70, %59
  %82 = load ptr, ptr %9, align 8
  %83 = load i32, ptr @hf_gsm_bssmap_le_vertical_accuracy_indicator, align 4
  %84 = load ptr, ptr %8, align 8
  %85 = load i16, ptr %19, align 2
  %86 = zext i16 %85 to i32
  %87 = call ptr @proto_tree_add_bits_ret_val(ptr noundef %82, i32 noundef %83, ptr noundef %84, i32 noundef %86, i32 noundef 1, ptr noundef %18, i32 noundef 0)
  %88 = load i16, ptr %19, align 2
  %89 = add i16 %88, 1
  store i16 %89, ptr %19, align 2
  %90 = load i64, ptr %18, align 8
  %91 = icmp eq i64 %90, 1
  br i1 %91, label %92, label %103

92:                                               ; preds = %81
  %93 = load ptr, ptr %9, align 8
  %94 = load i32, ptr @hf_gsm_bssmap_le_vertical_accuracy, align 4
  %95 = load ptr, ptr %8, align 8
  %96 = load i16, ptr %19, align 2
  %97 = zext i16 %96 to i32
  %98 = call ptr @proto_tree_add_bits_item(ptr noundef %93, i32 noundef %94, ptr noundef %95, i32 noundef %97, i32 noundef 7, i32 noundef 0)
  %99 = load i16, ptr %19, align 2
  %100 = zext i16 %99 to i32
  %101 = add i32 %100, 7
  %102 = trunc i32 %101 to i16
  store i16 %102, ptr %19, align 2
  br label %114

103:                                              ; preds = %81
  %104 = load ptr, ptr %9, align 8
  %105 = load i32, ptr @hf_gsm_bssmap_le_spare, align 4
  %106 = load ptr, ptr %8, align 8
  %107 = load i16, ptr %19, align 2
  %108 = zext i16 %107 to i32
  %109 = call ptr @proto_tree_add_bits_item(ptr noundef %104, i32 noundef %105, ptr noundef %106, i32 noundef %108, i32 noundef 7, i32 noundef 0)
  %110 = load i16, ptr %19, align 2
  %111 = zext i16 %110 to i32
  %112 = add i32 %111, 7
  %113 = trunc i32 %112 to i16
  store i16 %113, ptr %19, align 2
  br label %114

114:                                              ; preds = %103, %92
  %115 = load ptr, ptr %9, align 8
  %116 = load i32, ptr @hf_gsm_bssmap_le_response_time_category, align 4
  %117 = load ptr, ptr %8, align 8
  %118 = load i16, ptr %19, align 2
  %119 = zext i16 %118 to i32
  %120 = call ptr @proto_tree_add_bits_item(ptr noundef %115, i32 noundef %116, ptr noundef %117, i32 noundef %119, i32 noundef 2, i32 noundef 0)
  %121 = load i32, ptr %12, align 4
  %122 = trunc i32 %121 to i16
  call void @llvm.lifetime.end.p0(i64 2, ptr %19) #3
  call void @llvm.lifetime.end.p0(i64 8, ptr %18) #3
  call void @llvm.lifetime.end.p0(i64 8, ptr %17) #3
  call void @llvm.lifetime.end.p0(i64 8, ptr %16) #3
  call void @llvm.lifetime.end.p0(i64 8, ptr %15) #3
  ret i16 %122
}