; Function Attrs: null_pointer_is_valid sspstrong uwtable
define internal noundef zeroext i16 @de_bmaple_lcs_qos(ptr noundef %0, ptr noundef %1, ptr readnone captures(none) %2, i32 noundef %3, i32 noundef %4, ptr readnone captures(none) %5, i32 %6) #1 {
  %8 = alloca i64, align 8
  %9 = alloca i64, align 8
  %10 = alloca i64, align 8
  %11 = alloca i64, align 8
  call void @llvm.lifetime.start.p0(i64 8, ptr nonnull %8) #3
  call void @llvm.lifetime.start.p0(i64 8, ptr nonnull %9) #3
  call void @llvm.lifetime.start.p0(i64 8, ptr nonnull %10) #3
  call void @llvm.lifetime.start.p0(i64 8, ptr nonnull %11) #3
  %12 = shl i32 %3, 3
  %13 = load i32, ptr @hf_gsm_bssmap_le_spare, align 4
  %14 = and i32 %12, 65528
  %15 = tail call ptr @proto_tree_add_bits_item(ptr noundef %1, i32 noundef %13, ptr noundef %0, i32 noundef %14, i32 noundef 6, i32 noundef 0)
  %16 = load i32, ptr @hf_gsm_bssmap_le_velocity_requested, align 4
  %17 = or disjoint i32 %14, 6
  %18 = call ptr @proto_tree_add_bits_ret_val(ptr noundef %1, i32 noundef %16, ptr noundef %0, i32 noundef %17, i32 noundef 1, ptr noundef nonnull %9, i32 noundef 0)
  %19 = load i32, ptr @hf_gsm_bssmap_le_vertical_coordinate_indicator, align 4
  %20 = or disjoint i32 %14, 7
  %21 = call ptr @proto_tree_add_bits_ret_val(ptr noundef %1, i32 noundef %19, ptr noundef %0, i32 noundef %20, i32 noundef 1, ptr noundef nonnull %8, i32 noundef 0)
  %22 = add i32 %12, 8
  %23 = load i32, ptr @hf_gsm_bssmap_le_horizontal_accuracy_indicator, align 4
  %24 = and i32 %22, 65528
  %25 = call ptr @proto_tree_add_bits_ret_val(ptr noundef %1, i32 noundef %23, ptr noundef %0, i32 noundef %24, i32 noundef 1, ptr noundef nonnull %10, i32 noundef 0)
  %26 = add i32 %12, 9
  %27 = load i64, ptr %10, align 8
  %28 = icmp eq i64 %27, 1
  %29 = and i32 %26, 65529
  %hf_gsm_bssmap_le_horizontal_accuracy.val = load i32, ptr @hf_gsm_bssmap_le_horizontal_accuracy, align 4
  %hf_gsm_bssmap_le_spare.val = load i32, ptr @hf_gsm_bssmap_le_spare, align 4
  %30 = select i1 %28, i32 %hf_gsm_bssmap_le_horizontal_accuracy.val, i32 %hf_gsm_bssmap_le_spare.val
  %31 = call ptr @proto_tree_add_bits_item(ptr noundef %1, i32 noundef %30, ptr noundef %0, i32 noundef %29, i32 noundef 7, i32 noundef 0)
  %.0 = add i32 %12, 16
  %32 = load i32, ptr @hf_gsm_bssmap_le_vertical_accuracy_indicator, align 4
  %33 = and i32 %.0, 65528
  %34 = call ptr @proto_tree_add_bits_ret_val(ptr noundef %1, i32 noundef %32, ptr noundef %0, i32 noundef %33, i32 noundef 1, ptr noundef nonnull %11, i32 noundef 0)
  %35 = add i32 %12, 17
  %36 = load i64, ptr %11, align 8
  %37 = icmp eq i64 %36, 1
  %hf_gsm_bssmap_le_vertical_accuracy.val = load i32, ptr @hf_gsm_bssmap_le_vertical_accuracy, align 4
  %hf_gsm_bssmap_le_spare.val42 = load i32, ptr @hf_gsm_bssmap_le_spare, align 4
  %38 = select i1 %37, i32 %hf_gsm_bssmap_le_vertical_accuracy.val, i32 %hf_gsm_bssmap_le_spare.val42
  %39 = and i32 %35, 65529
  %40 = call ptr @proto_tree_add_bits_item(ptr noundef %1, i32 noundef %38, ptr noundef %0, i32 noundef %39, i32 noundef 7, i32 noundef 0)
  %.1 = add i32 %12, 24
  %41 = load i32, ptr @hf_gsm_bssmap_le_response_time_category, align 4
  %42 = and i32 %.1, 65528
  %43 = call ptr @proto_tree_add_bits_item(ptr noundef %1, i32 noundef %41, ptr noundef %0, i32 noundef %42, i32 noundef 2, i32 noundef 0)
  %44 = trunc i32 %4 to i16
  call void @llvm.lifetime.end.p0(i64 8, ptr nonnull %11) #3
  call void @llvm.lifetime.end.p0(i64 8, ptr nonnull %10) #3
  call void @llvm.lifetime.end.p0(i64 8, ptr nonnull %9) #3
  call void @llvm.lifetime.end.p0(i64 8, ptr nonnull %8) #3
  ret i16 %44
}